; Function Attrs: nounwind uwtable
define dso_local noundef ptr @CreateTransientRelDestReceiver(i32 noundef %0) local_unnamed_addr #0 {
  %2 = tail call ptr @palloc0(i64 noundef 72) #8
  store ptr @transientrel_receive, ptr %2, align 8
  %3 = getelementptr inbounds nuw i8, ptr %2, i64 8
  store ptr @transientrel_startup, ptr %3, align 8
  %4 = getelementptr inbounds nuw i8, ptr %2, i64 16
  store ptr @transientrel_shutdown, ptr %4, align 8
  %5 = getelementptr inbounds nuw i8, ptr %2, i64 24
  store ptr @transientrel_destroy, ptr %5, align 8
  %6 = getelementptr inbounds nuw i8, ptr %2, i64 32
  store i32 10, ptr %6, align 8
  %7 = getelementptr inbounds nuw i8, ptr %2, i64 40
  store i32 %0, ptr %7, align 8
  ret ptr %2
}